                              1 ;--------------------------------------------------------
                              2 ; File Created by SDCC : free open source ANSI-C Compiler
                              3 ; Version 3.5.0 #9253 (Apr  3 2018) (Linux)
                              4 ; This file was generated Sat Nov  2 15:06:52 2019
                              5 ;--------------------------------------------------------
                              6 	.module Title_screen
                              7 	.optsdcc -mgbz80
                              8 	
                              9 ;--------------------------------------------------------
                             10 ; Public variables in this module
                             11 ;--------------------------------------------------------
                             12 	.globl _main
                             13 	.globl _update
                             14 	.globl _draw_cursor
                             15 	.globl _init
                             16 	.globl _coord_2d_to_1d
                             17 	.globl _draw_board
                             18 	.globl _title_screen
                             19 	.globl _clear_screen
                             20 	.globl _setchar
                             21 	.globl _gotoxy
                             22 	.globl _waitpad
                             23 	.globl _printf
                             24 	.globl _GAME_CURSOR_Y
                             25 	.globl _GAME_CURSOR_X
                             26 	.globl _GAME_BOARD
                             27 ;--------------------------------------------------------
                             28 ; ram data
                             29 ;--------------------------------------------------------
                             30 	.area _DATA
   0000                      31 _GAME_BOARD::
   0000                      32 	.ds 9
   0009                      33 _GAME_CURSOR_X::
   0009                      34 	.ds 1
   000A                      35 _GAME_CURSOR_Y::
   000A                      36 	.ds 1
                             37 ;--------------------------------------------------------
                             38 ; absolute external ram data
                             39 ;--------------------------------------------------------
                             40 	.area _DABS (ABS)
                             41 ;--------------------------------------------------------
                             42 ; global & static initialisations
                             43 ;--------------------------------------------------------
                             44 	.area _HOME
                             45 	.area _GSINIT
                             46 	.area _GSFINAL
                             47 	.area _GSINIT
                             48 ;--------------------------------------------------------
                             49 ; Home
                             50 ;--------------------------------------------------------
                             51 	.area _HOME
                             52 	.area _HOME
                             53 ;--------------------------------------------------------
                             54 ; code
                             55 ;--------------------------------------------------------
                             56 	.area _CODE
                             57 ;Title_screen.c:24: void	clear_screen()
                             58 ;	---------------------------------
                             59 ; Function clear_screen
                             60 ; ---------------------------------
   0000                      61 _clear_screen::
                             62 ;Title_screen.c:28: while (y)
   0000 06 12                63 	ld	b,#0x12
   0002                      64 00104$:
   0002 78                   65 	ld	a,b
   0003 B7                   66 	or	a, a
   0004 C8                   67 	ret	Z
                             68 ;Title_screen.c:30: y -= 1;
   0005 05                   69 	dec	b
                             70 ;Title_screen.c:32: while (x)
   0006 0E 14                71 	ld	c,#0x14
   0008                      72 00101$:
   0008 79                   73 	ld	a,c
   0009 B7                   74 	or	a, a
   000A 28 F6                75 	jr	Z,00104$
                             76 ;Title_screen.c:34: x -= 1;
   000C 0D                   77 	dec	c
                             78 ;Title_screen.c:35: gotoxy(x, y);
   000D C5                   79 	push	bc
   000E C5                   80 	push	bc
   000F 33                   81 	inc	sp
   0010 79                   82 	ld	a,c
   0011 F5                   83 	push	af
   0012 33                   84 	inc	sp
   0013 CDr00r00             85 	call	_gotoxy
   0016 E8 02                86 	add	sp, #2
   0018 C1                   87 	pop	bc
                             88 ;Title_screen.c:36: setchar(' ');
   0019 C5                   89 	push	bc
   001A 3E 20                90 	ld	a,#0x20
   001C F5                   91 	push	af
   001D 33                   92 	inc	sp
   001E CDr00r00             93 	call	_setchar
   0021 33                   94 	inc	sp
   0022 C1                   95 	pop	bc
   0023 18 E3                96 	jr	00101$
   0025 C9                   97 	ret
                             98 ;Title_screen.c:41: void	title_screen()
                             99 ;	---------------------------------
                            100 ; Function title_screen
                            101 ; ---------------------------------
   0026                     102 _title_screen::
                            103 ;Title_screen.c:43: clear_screen();
   0026 CDr00r00            104 	call	_clear_screen
                            105 ;Title_screen.c:44: gotoxy(4, 5);
   0029 21 04 05            106 	ld	hl,#0x0504
   002C E5                  107 	push	hl
   002D CDr00r00            108 	call	_gotoxy
   0030 E8 02               109 	add	sp, #2
                            110 ;Title_screen.c:45: printf("Tic Tac Toe !");
   0032 11r4Er00            111 	ld	de,#___str_0
   0035 D5                  112 	push	de
   0036 CDr00r00            113 	call	_printf
   0039 E8 02               114 	add	sp, #2
                            115 ;Title_screen.c:46: gotoxy(3, 15);
   003B 21 03 0F            116 	ld	hl,#0x0F03
   003E E5                  117 	push	hl
   003F CDr00r00            118 	call	_gotoxy
   0042 E8 02               119 	add	sp, #2
                            120 ;Title_screen.c:47: printf("- PRESS START -");
   0044 11r5Cr00            121 	ld	de,#___str_1
   0047 D5                  122 	push	de
   0048 CDr00r00            123 	call	_printf
   004B E8 02               124 	add	sp, #2
   004D C9                  125 	ret
   004E                     126 ___str_0:
   004E 54 69 63 20 54 61   127 	.ascii "Tic Tac Toe !"
        63 20 54 6F 65 20
        21
   005B 00                  128 	.db 0x00
   005C                     129 ___str_1:
   005C 2D 20 50 52 45 53   130 	.ascii "- PRESS START -"
        53 20 53 54 41 52
        54 20 2D
   006B 00                  131 	.db 0x00
                            132 ;Title_screen.c:50: void	draw_board(void)
                            133 ;	---------------------------------
                            134 ; Function draw_board
                            135 ; ---------------------------------
   006C                     136 _draw_board::
                            137 ;Title_screen.c:52: gotoxy(4, 1);
   006C 21 04 01            138 	ld	hl,#0x0104
   006F E5                  139 	push	hl
   0070 CDr00r00            140 	call	_gotoxy
   0073 E8 02               141 	add	sp, #2
                            142 ;Title_screen.c:53: printf("Tic Tac Toe");
   0075 11rFDr00            143 	ld	de,#___str_2
   0078 D5                  144 	push	de
   0079 CDr00r00            145 	call	_printf
   007C E8 02               146 	add	sp, #2
                            147 ;Title_screen.c:54: gotoxy(1, 17);
   007E 21 01 11            148 	ld	hl,#0x1101
   0081 E5                  149 	push	hl
   0082 CDr00r00            150 	call	_gotoxy
   0085 E8 02               151 	add	sp, #2
                            152 ;Title_screen.c:55: printf("X you - O Computer");
   0087 11r09r01            153 	ld	de,#___str_3
   008A D5                  154 	push	de
   008B CDr00r00            155 	call	_printf
   008E E8 02               156 	add	sp, #2
                            157 ;Title_screen.c:56: gotoxy(0, 4);
   0090 21 00 04            158 	ld	hl,#0x0400
   0093 E5                  159 	push	hl
   0094 CDr00r00            160 	call	_gotoxy
   0097 E8 02               161 	add	sp, #2
                            162 ;Title_screen.c:57: printf("       |   |   \n");
   0099 11r1Cr01            163 	ld	de,#___str_4
   009C D5                  164 	push	de
   009D CDr00r00            165 	call	_printf
   00A0 E8 02               166 	add	sp, #2
                            167 ;Title_screen.c:58: printf("       |   |   \n");
   00A2 11r1Cr01            168 	ld	de,#___str_4
   00A5 D5                  169 	push	de
   00A6 CDr00r00            170 	call	_printf
   00A9 E8 02               171 	add	sp, #2
                            172 ;Title_screen.c:59: printf("       |   |   \n");
   00AB 11r1Cr01            173 	ld	de,#___str_4
   00AE D5                  174 	push	de
   00AF CDr00r00            175 	call	_printf
   00B2 E8 02               176 	add	sp, #2
                            177 ;Title_screen.c:60: printf("    ---+---+---\n");
   00B4 11r2Dr01            178 	ld	de,#___str_5
   00B7 D5                  179 	push	de
   00B8 CDr00r00            180 	call	_printf
   00BB E8 02               181 	add	sp, #2
                            182 ;Title_screen.c:61: printf("       |   |   \n");
   00BD 11r1Cr01            183 	ld	de,#___str_4
   00C0 D5                  184 	push	de
   00C1 CDr00r00            185 	call	_printf
   00C4 E8 02               186 	add	sp, #2
                            187 ;Title_screen.c:62: printf("       |   |   \n");
   00C6 11r1Cr01            188 	ld	de,#___str_4
   00C9 D5                  189 	push	de
   00CA CDr00r00            190 	call	_printf
   00CD E8 02               191 	add	sp, #2
                            192 ;Title_screen.c:63: printf("       |   |   \n");
   00CF 11r1Cr01            193 	ld	de,#___str_4
   00D2 D5                  194 	push	de
   00D3 CDr00r00            195 	call	_printf
   00D6 E8 02               196 	add	sp, #2
                            197 ;Title_screen.c:64: printf("    ---+---+---\n");
   00D8 11r2Dr01            198 	ld	de,#___str_5
   00DB D5                  199 	push	de
   00DC CDr00r00            200 	call	_printf
   00DF E8 02               201 	add	sp, #2
                            202 ;Title_screen.c:65: printf("       |   |   \n");
   00E1 11r1Cr01            203 	ld	de,#___str_4
   00E4 D5                  204 	push	de
   00E5 CDr00r00            205 	call	_printf
   00E8 E8 02               206 	add	sp, #2
                            207 ;Title_screen.c:66: printf("       |   |   \n");
   00EA 11r1Cr01            208 	ld	de,#___str_4
   00ED D5                  209 	push	de
   00EE CDr00r00            210 	call	_printf
   00F1 E8 02               211 	add	sp, #2
                            212 ;Title_screen.c:67: printf("       |   |   \n");
   00F3 11r1Cr01            213 	ld	de,#___str_4
   00F6 D5                  214 	push	de
   00F7 CDr00r00            215 	call	_printf
   00FA E8 02               216 	add	sp, #2
   00FC C9                  217 	ret
   00FD                     218 ___str_2:
   00FD 54 69 63 20 54 61   219 	.ascii "Tic Tac Toe"
        63 20 54 6F 65
   0108 00                  220 	.db 0x00
   0109                     221 ___str_3:
   0109 58 20 79 6F 75 20   222 	.ascii "X you - O Computer"
        2D 20 4F 20 43 6F
        6D 70 75 74 65 72
   011B 00                  223 	.db 0x00
   011C                     224 ___str_4:
   011C 20 20 20 20 20 20   225 	.ascii "       |   |   "
        20 7C 20 20 20 7C
        20 20 20
   012B 0A                  226 	.db 0x0A
   012C 00                  227 	.db 0x00
   012D                     228 ___str_5:
   012D 20 20 20 20 2D 2D   229 	.ascii "    ---+---+---"
        2D 2B 2D 2D 2D 2B
        2D 2D 2D
   013C 0A                  230 	.db 0x0A
   013D 00                  231 	.db 0x00
                            232 ;Title_screen.c:70: UINT8	coord_2d_to_1d(UINT8 x, UINT8 y)
                            233 ;	---------------------------------
                            234 ; Function coord_2d_to_1d
                            235 ; ---------------------------------
   013E                     236 _coord_2d_to_1d::
                            237 ;Title_screen.c:72: return y * 3 + x;
   013E F8 03               238 	ldhl	sp,#3
   0140 7E                  239 	ld	a,(hl)
   0141 4F                  240 	ld	c,a
   0142 87                  241 	add	a, a
   0143 81                  242 	add	a, c
   0144 47                  243 	ld	b,a
   0145 F8 02               244 	ldhl	sp,#2
   0147 86                  245 	add	a, (hl)
   0148 5F                  246 	ld	e,a
   0149 C9                  247 	ret
                            248 ;Title_screen.c:75: void	init(void)
                            249 ;	---------------------------------
                            250 ; Function init
                            251 ; ---------------------------------
   014A                     252 _init::
   014A 3B                  253 	dec	sp
                            254 ;Title_screen.c:79: while(i < 9)
   014B F8 00               255 	ldhl	sp,#0
   014D 36 00               256 	ld	(hl),#0x00
   014F                     257 00101$:
   014F F8 00               258 	ldhl	sp,#0
   0151 7E                  259 	ld	a,(hl)
   0152 D6 09               260 	sub	a, #0x09
   0154 30 10               261 	jr	NC,00103$
                            262 ;Title_screen.c:81: GAME_BOARD[i++] = EMPTY;
   0156 46                  263 	ld	b,(hl)
   0157 34                  264 	inc	(hl)
   0158 3Er00               265 	ld	a,#<(_GAME_BOARD)
   015A 80                  266 	add	a, b
   015B 4F                  267 	ld	c,a
   015C 3Es00               268 	ld	a,#>(_GAME_BOARD)
   015E CE 00               269 	adc	a, #0x00
   0160 47                  270 	ld	b,a
   0161 3E 20               271 	ld	a,#0x20
   0163 02                  272 	ld	(bc),a
   0164 18 E9               273 	jr	00101$
   0166                     274 00103$:
                            275 ;Title_screen.c:84: GAME_CURSOR_X = 1;
   0166 21r09r00            276 	ld	hl,#_GAME_CURSOR_X
   0169 36 01               277 	ld	(hl),#0x01
                            278 ;Title_screen.c:85: GAME_CURSOR_Y = 1;
   016B 21r0Ar00            279 	ld	hl,#_GAME_CURSOR_Y
   016E 36 01               280 	ld	(hl),#0x01
   0170 33                  281 	inc	sp
   0171 C9                  282 	ret
                            283 ;Title_screen.c:88: void	draw_cursor(UINT8 cursor_char)
                            284 ;	---------------------------------
                            285 ; Function draw_cursor
                            286 ; ---------------------------------
   0172                     287 _draw_cursor::
   0172 E8 F7               288 	add	sp, #-9
                            289 ;Title_screen.c:90: UINT8 graph_x = GAME_CURSOR_X * 4 + 5;
   0174 21r09r00            290 	ld	hl,#_GAME_CURSOR_X
   0177 7E                  291 	ld	a,(hl)
   0178 87                  292 	add	a, a
   0179 87                  293 	add	a, a
   017A C6 05               294 	add	a, #0x05
   017C F8 01               295 	ldhl	sp,#1
   017E 77                  296 	ld	(hl),a
                            297 ;Title_screen.c:91: UINT8 graph_y = GAME_CURSOR_Y * 4 + 5;
   017F 21r0Ar00            298 	ld	hl,#_GAME_CURSOR_Y
   0182 7E                  299 	ld	a,(hl)
   0183 87                  300 	add	a, a
   0184 87                  301 	add	a, a
   0185 C6 05               302 	add	a, #0x05
   0187 F8 00               303 	ldhl	sp,#0
   0189 77                  304 	ld	(hl),a
                            305 ;Title_screen.c:95: for (cy = graph_y - 1 ; cy <= graph_y + 1 ; cy ++)
   018A 7E                  306 	ld	a,(hl)
   018B C6 FF               307 	add	a,#0xFF
   018D F8 05               308 	ldhl	sp,#5
   018F 77                  309 	ld	(hl),a
   0190 F8 01               310 	ldhl	sp,#1
   0192 7E                  311 	ld	a,(hl)
   0193 C6 FF               312 	add	a,#0xFF
   0195 23                  313 	inc	hl
   0196 77                  314 	ld	(hl),a
   0197                     315 00110$:
   0197 F8 00               316 	ldhl	sp,#0
   0199 4E                  317 	ld	c,(hl)
   019A 06 00               318 	ld	b,#0x00
   019C 03                  319 	inc	bc
   019D F8 03               320 	ldhl	sp,#3
   019F 71                  321 	ld	(hl),c
   01A0 23                  322 	inc	hl
   01A1 70                  323 	ld	(hl),b
   01A2 23                  324 	inc	hl
   01A3 46                  325 	ld	b,(hl)
   01A4 0E 00               326 	ld	c,#0x00
   01A6 2B                  327 	dec	hl
   01A7 2B                  328 	dec	hl
   01A8 7E                  329 	ld	a, (hl)
   01A9 90                  330 	sub	a, b
   01AA 23                  331 	inc	hl
   01AB 7E                  332 	ld	a, (hl)
   01AC 99                  333 	sbc	a, c
   01AD 56                  334 	ld	d, (hl)
   01AE 79                  335 	ld	a,c
   01AF 5F                  336 	ld	e, a
   01B0 CB 7B               337 	bit	7, e
   01B2 28 07               338 	jr	Z,00136$
   01B4 CB 7A               339 	bit	7, d
   01B6 20 08               340 	jr	NZ,00137$
   01B8 BF                  341 	cp	a, a
   01B9 18 05               342 	jr	00137$
   01BB                     343 00136$:
   01BB CB 7A               344 	bit	7, d
   01BD 28 01               345 	jr	Z,00137$
   01BF 37                  346 	scf
   01C0                     347 00137$:
   01C0 DAr33r02            348 	jp	C,00112$
                            349 ;Title_screen.c:97: for (cx = graph_x - 1 ; cx <= graph_x + 1 ; cx++)
   01C3 E5                  350 	push	hl
   01C4 F8 04               351 	ldhl	sp,#4
   01C6 2A                  352 	ld	a,(hl+)
   01C7 77                  353 	ld	(hl),a
   01C8 E1                  354 	pop	hl
   01C9 F8 00               355 	ldhl	sp,#0
   01CB 7E                  356 	ld	a,(hl)
   01CC F8 05               357 	ldhl	sp,#5
   01CE 96                  358 	sub	a, (hl)
   01CF 20 04               359 	jr	NZ,00138$
   01D1 3E 01               360 	ld	a,#0x01
   01D3 18 01               361 	jr	00139$
   01D5                     362 00138$:
   01D5 AF                  363 	xor	a,a
   01D6                     364 00139$:
   01D6 F8 06               365 	ldhl	sp,#6
   01D8 77                  366 	ld	(hl),a
   01D9                     367 00108$:
   01D9 F8 01               368 	ldhl	sp,#1
   01DB 4E                  369 	ld	c,(hl)
   01DC 06 00               370 	ld	b,#0x00
   01DE 03                  371 	inc	bc
   01DF 23                  372 	inc	hl
   01E0 23                  373 	inc	hl
   01E1 7E                  374 	ld	a,(hl)
   01E2 F8 07               375 	ldhl	sp,#7
   01E4 22                  376 	ld	(hl+),a
   01E5 36 00               377 	ld	(hl),#0x00
   01E7 2B                  378 	dec	hl
   01E8 79                  379 	ld	a,c
   01E9 96                  380 	sub	a, (hl)
   01EA 23                  381 	inc	hl
   01EB 78                  382 	ld	a,b
   01EC 9E                  383 	sbc	a, (hl)
   01ED 78                  384 	ld	a,b
   01EE 57                  385 	ld	d, a
   01EF 5E                  386 	ld	e, (hl)
   01F0 CB 7B               387 	bit	7, e
   01F2 28 07               388 	jr	Z,00140$
   01F4 CB 7A               389 	bit	7, d
   01F6 20 08               390 	jr	NZ,00141$
   01F8 BF                  391 	cp	a, a
   01F9 18 05               392 	jr	00141$
   01FB                     393 00140$:
   01FB CB 7A               394 	bit	7, d
   01FD 28 01               395 	jr	Z,00141$
   01FF 37                  396 	scf
   0200                     397 00141$:
   0200 38 2B               398 	jr	C,00111$
                            399 ;Title_screen.c:99: if (cx == graph_x && cy == graph_y)
   0202 F8 01               400 	ldhl	sp,#1
   0204 2A                  401 	ld	a,(hl+)
   0205 23                  402 	inc	hl
   0206 96                  403 	sub	a, (hl)
   0207 20 06               404 	jr	NZ,00102$
   0209 F8 06               405 	ldhl	sp,#6
   020B 7E                  406 	ld	a,(hl)
   020C B7                  407 	or	a, a
   020D 20 18               408 	jr	NZ,00104$
                            409 ;Title_screen.c:100: continue ;
   020F                     410 00102$:
                            411 ;Title_screen.c:101: gotoxy(cx, cy);
   020F F8 05               412 	ldhl	sp,#5
   0211 7E                  413 	ld	a,(hl)
   0212 F5                  414 	push	af
   0213 33                  415 	inc	sp
   0214 2B                  416 	dec	hl
   0215 2B                  417 	dec	hl
   0216 7E                  418 	ld	a,(hl)
   0217 F5                  419 	push	af
   0218 33                  420 	inc	sp
   0219 CDr00r00            421 	call	_gotoxy
   021C E8 02               422 	add	sp, #2
                            423 ;Title_screen.c:102: setchar(cursor_char);
   021E F8 0B               424 	ldhl	sp,#11
   0220 7E                  425 	ld	a,(hl)
   0221 F5                  426 	push	af
   0222 33                  427 	inc	sp
   0223 CDr00r00            428 	call	_setchar
   0226 33                  429 	inc	sp
   0227                     430 00104$:
                            431 ;Title_screen.c:97: for (cx = graph_x - 1 ; cx <= graph_x + 1 ; cx++)
   0227 F8 03               432 	ldhl	sp,#3
   0229 34                  433 	inc	(hl)
   022A C3rD9r01            434 	jp	00108$
   022D                     435 00111$:
                            436 ;Title_screen.c:95: for (cy = graph_y - 1 ; cy <= graph_y + 1 ; cy ++)
   022D F8 05               437 	ldhl	sp,#5
   022F 34                  438 	inc	(hl)
   0230 C3r97r01            439 	jp	00110$
   0233                     440 00112$:
   0233 E8 09               441 	add	sp, #9
   0235 C9                  442 	ret
                            443 ;Title_screen.c:108: void	update(void)
                            444 ;	---------------------------------
                            445 ; Function update
                            446 ; ---------------------------------
   0236                     447 _update::
   0236 E8 FC               448 	add	sp, #-4
                            449 ;Title_screen.c:111: UINT8	x = 0;
   0238 06 00               450 	ld	b,#0x00
                            451 ;Title_screen.c:116: while (y < 3)
   023A 0E 00               452 	ld	c,#0x00
   023C                     453 00104$:
                            454 ;Title_screen.c:118: while (x < 3)
   023C 79                  455 	ld	a,c
   023D FE 03               456 	cp	a,#0x03
   023F D2r96r02            457 	jp	NC,00107$
   0242 87                  458 	add	a, a
   0243 87                  459 	add	a, a
   0244 C6 05               460 	add	a, #0x05
   0246 F8 03               461 	ldhl	sp,#3
   0248 77                  462 	ld	(hl),a
   0249                     463 00101$:
   0249 78                  464 	ld	a,b
   024A D6 03               465 	sub	a, #0x03
   024C D2r92r02            466 	jp	NC,00112$
                            467 ;Title_screen.c:120: i = coord_2d_to_1d(x, y);
   024F C5                  468 	push	bc
   0250 79                  469 	ld	a,c
   0251 F5                  470 	push	af
   0252 33                  471 	inc	sp
   0253 C5                  472 	push	bc
   0254 33                  473 	inc	sp
   0255 CDr3Er01            474 	call	_coord_2d_to_1d
   0258 E8 02               475 	add	sp, #2
   025A C1                  476 	pop	bc
   025B F8 00               477 	ldhl	sp,#0
   025D 73                  478 	ld	(hl),e
                            479 ;Title_screen.c:121: graph_x = x * 4 + 5;
   025E 78                  480 	ld	a,b
   025F 87                  481 	add	a, a
   0260 87                  482 	add	a, a
   0261 C6 05               483 	add	a, #0x05
   0263 57                  484 	ld	d,a
                            485 ;Title_screen.c:123: gotoxy(graph_x, graph_y);
   0264 C5                  486 	push	bc
   0265 F8 05               487 	ldhl	sp,#5
   0267 7E                  488 	ld	a,(hl)
   0268 F5                  489 	push	af
   0269 33                  490 	inc	sp
   026A D5                  491 	push	de
   026B 33                  492 	inc	sp
   026C CDr00r00            493 	call	_gotoxy
   026F E8 02               494 	add	sp, #2
   0271 C1                  495 	pop	bc
                            496 ;Title_screen.c:124: setchar(GAME_BOARD[i]);
   0272 11r00r00            497 	ld	de,#_GAME_BOARD
   0275 F8 00               498 	ldhl	sp,#0
   0277 6E                  499 	ld	l,(hl)
   0278 26 00               500 	ld	h,#0x00
   027A 19                  501 	add	hl,de
   027B 7D                  502 	ld	a,l
   027C 54                  503 	ld	d,h
   027D F8 01               504 	ldhl	sp,#1
   027F 22                  505 	ld	(hl+),a
   0280 72                  506 	ld	(hl),d
   0281 2B                  507 	dec	hl
   0282 5E                  508 	ld	e,(hl)
   0283 23                  509 	inc	hl
   0284 56                  510 	ld	d,(hl)
   0285 1A                  511 	ld	a,(de)
   0286 C5                  512 	push	bc
   0287 F5                  513 	push	af
   0288 33                  514 	inc	sp
   0289 CDr00r00            515 	call	_setchar
   028C 33                  516 	inc	sp
   028D C1                  517 	pop	bc
                            518 ;Title_screen.c:125: x++;
   028E 04                  519 	inc	b
   028F C3r49r02            520 	jp	00101$
   0292                     521 00112$:
                            522 ;Title_screen.c:127: y++;
   0292 0C                  523 	inc	c
   0293 C3r3Cr02            524 	jp	00104$
   0296                     525 00107$:
   0296 E8 04               526 	add	sp, #4
   0298 C9                  527 	ret
                            528 ;Title_screen.c:132: void	main(void)
                            529 ;	---------------------------------
                            530 ; Function main
                            531 ; ---------------------------------
   0299                     532 _main::
                            533 ;Title_screen.c:134: title_screen(); // Title screen
   0299 CDr26r00            534 	call	_title_screen
                            535 ;Title_screen.c:135: waitpad(J_START); // Wait for start to be pressed
   029C 3E 80               536 	ld	a,#0x80
   029E F5                  537 	push	af
   029F 33                  538 	inc	sp
   02A0 CDr00r00            539 	call	_waitpad
   02A3 33                  540 	inc	sp
                            541 ;Title_screen.c:136: clear_screen(); // clear tiles
   02A4 CDr00r00            542 	call	_clear_screen
                            543 ;Title_screen.c:137: init(); // Init varaiables for the game
   02A7 CDr4Ar01            544 	call	_init
                            545 ;Title_screen.c:138: draw_board(); // Draw the game board
   02AA CDr6Cr00            546 	call	_draw_board
                            547 ;Title_screen.c:139: draw_cursor('!');
   02AD 3E 21               548 	ld	a,#0x21
   02AF F5                  549 	push	af
   02B0 33                  550 	inc	sp
   02B1 CDr72r01            551 	call	_draw_cursor
   02B4 33                  552 	inc	sp
                            553 ;Title_screen.c:140: GAME_BOARD[0] = PLAYER;
   02B5 21r00r00            554 	ld	hl,#_GAME_BOARD
   02B8 36 78               555 	ld	(hl),#0x78
                            556 ;Title_screen.c:141: GAME_BOARD[1] = COMPUTER;
   02BA 21r01r00            557 	ld	hl,#(_GAME_BOARD + 0x0001)
   02BD 36 6F               558 	ld	(hl),#0x6F
                            559 ;Title_screen.c:142: update();
   02BF CDr36r02            560 	call	_update
                            561 ;Title_screen.c:143: waitpad(J_START);
   02C2 3E 80               562 	ld	a,#0x80
   02C4 F5                  563 	push	af
   02C5 33                  564 	inc	sp
   02C6 CDr00r00            565 	call	_waitpad
   02C9 33                  566 	inc	sp
                            567 ;Title_screen.c:144: GAME_BOARD[1] = EMPTY;
   02CA 21r01r00            568 	ld	hl,#(_GAME_BOARD + 0x0001)
   02CD 36 20               569 	ld	(hl),#0x20
                            570 ;Title_screen.c:145: update();
   02CF C3r36r02            571 	jp	_update
                            572 	.area _CODE
                            573 	.area _CABS (ABS)
